; Function Attrs: nounwind uwtable
define void @Fxch_SCHashTableDelete(ptr noundef captures(none) %0) local_unnamed_addr #2 {
  %2 = getelementptr inbounds nuw i8, ptr %0, i64 20
  %3 = getelementptr inbounds nuw i8, ptr %0, i64 8
  %.pre = load ptr, ptr %3, align 8, !tbaa !14
  br label %4

4:                                                ; preds = %1, %12
  %5 = phi ptr [ %.pre, %1 ], [ %13, %12 ]
  %.023 = phi i32 [ 0, %1 ], [ %14, %12 ]
  %6 = zext i32 %.023 to i64
  %7 = getelementptr inbounds nuw %struct.Fxch_SCHashTable_Entry_t_, ptr %5, i64 %6
  %8 = load ptr, ptr %7, align 8, !tbaa !15
  %.not20 = icmp eq ptr %8, null
  br i1 %.not20, label %12, label %9

9:                                                ; preds = %4
  tail call void @free(ptr noundef nonnull %8) #16
  %10 = load ptr, ptr %3, align 8, !tbaa !14
  %11 = getelementptr inbounds nuw %struct.Fxch_SCHashTable_Entry_t_, ptr %10, i64 %6
  store ptr null, ptr %11, align 8, !tbaa !15
  br label %12

12:                                               ; preds = %9, %4
  %13 = phi ptr [ %10, %9 ], [ %5, %4 ]
  %14 = add i32 %.023, 1
  %15 = load i32, ptr %2, align 4, !tbaa !13
  %.not = icmp ugt i32 %14, %15
  br i1 %.not, label %16, label %4, !llvm.loop !18

16:                                               ; preds = %12
  %17 = getelementptr inbounds nuw i8, ptr %0, i64 24
  %18 = getelementptr inbounds nuw i8, ptr %0, i64 32
  %19 = load ptr, ptr %18, align 8, !tbaa !20
  %.not.i = icmp eq ptr %19, null
  br i1 %.not.i, label %Vec_IntErase.exit, label %20

20:                                               ; preds = %16
  tail call void @free(ptr noundef nonnull %19) #16
  store ptr null, ptr %18, align 8, !tbaa !20
  br label %Vec_IntErase.exit

Vec_IntErase.exit:                                ; preds = %16, %20
  %21 = getelementptr inbounds nuw i8, ptr %0, i64 28
  store i32 0, ptr %21, align 4, !tbaa !21
  store i32 0, ptr %17, align 8, !tbaa !22
  %22 = getelementptr inbounds nuw i8, ptr %0, i64 40
  %23 = getelementptr inbounds nuw i8, ptr %0, i64 48
  %24 = load ptr, ptr %23, align 8, !tbaa !20
  %.not.i21 = icmp eq ptr %24, null
  br i1 %.not.i21, label %Vec_IntErase.exit22, label %25

25:                                               ; preds = %Vec_IntErase.exit
  tail call void @free(ptr noundef nonnull %24) #16
  store ptr null, ptr %23, align 8, !tbaa !20
  br label %Vec_IntErase.exit22

Vec_IntErase.exit22:                              ; preds = %Vec_IntErase.exit, %25
  %26 = getelementptr inbounds nuw i8, ptr %0, i64 44
  store i32 0, ptr %26, align 4, !tbaa !21
  store i32 0, ptr %22, align 8, !tbaa !22
  %27 = load ptr, ptr %3, align 8, !tbaa !14
  %.not18 = icmp eq ptr %27, null
  br i1 %.not18, label %29, label %28

28:                                               ; preds = %Vec_IntErase.exit22
  tail call void @free(ptr noundef nonnull %27) #16
  br label %29

29:                                               ; preds = %Vec_IntErase.exit22, %28
  tail call void @free(ptr noundef nonnull %0) #16
  ret void
}